; Function Attrs: mustprogress uwtable
define hidden noundef zeroext i1 @_ZNK8facebook6hermes17HermesRuntimeImpl12strictEqualsERKNS_3jsi6BigIntES5_(ptr nocapture nonnull readnone align 8 %this, ptr nocapture noundef nonnull readonly align 8 dereferenceable(8) %a, ptr nocapture noundef nonnull readonly align 8 dereferenceable(8) %b) unnamed_addr #0 align 2 {
entry:
  %0 = load ptr, ptr %a, align 8
  %1 = getelementptr inbounds i8, ptr %0, i64 16
  %2 = load i64, ptr %1, align 8
  %and.i.i = and i64 %2, 281474976710655
  %3 = inttoptr i64 %and.i.i to ptr
  %4 = load ptr, ptr %b, align 8
  %5 = getelementptr inbounds i8, ptr %4, i64 16
  %6 = load i64, ptr %5, align 8
  %and.i.i1 = and i64 %6, 281474976710655
  %7 = inttoptr i64 %and.i.i1 to ptr
  %add.ptr.i.i.i.i = getelementptr inbounds i8, ptr %3, i64 8
  %numDigits2.i.i = getelementptr inbounds i8, ptr %3, i64 4
  %8 = load i32, ptr %numDigits2.i.i, align 4
  %add.ptr.i.i.i1.i = getelementptr inbounds i8, ptr %7, i64 8
  %numDigits2.i2.i = getelementptr inbounds i8, ptr %7, i64 4
  %9 = load i32, ptr %numDigits2.i2.i, align 4
  %call4.i = tail call noundef i32 @_ZN6hermes6bigint7compareENS0_18ImmutableBigIntRefES1_(ptr nonnull %add.ptr.i.i.i.i, i32 %8, ptr nonnull %add.ptr.i.i.i1.i, i32 %9)
  %cmp = icmp eq i32 %call4.i, 0
  ret i1 %cmp
}